target datalayout = "e-m:e-p270:32:32-p271:32:32-p272:64:64-i64:64-i128:128-f80:128-n8:16:32:64-S128"
target triple = "x86_64-pc-linux-gnu"

%struct.point_t = type { float, float }
%struct.dt_lut_t = type { ptr, ptr, ptr, ptr, ptr, ptr, ptr, ptr, ptr, ptr, ptr, ptr, ptr, ptr, ptr, ptr, ptr, %struct.image_t, %struct.image_t, ptr, ptr, ptr, ptr, ptr }
%struct.image_t = type { ptr, ptr, ptr, i32, i32, ptr, float, i32, i32, float, [4 x %struct.point_t], ptr, i32 }

; Function Attrs: nounwind uwtable
define internal void @cht_state_callback(ptr noundef %0, i32 noundef %1, ptr noundef %2) #0 {
  %4 = alloca ptr, align 8
  %5 = alloca i32, align 4
  %6 = alloca ptr, align 8
  %7 = alloca ptr, align 8
  store ptr %0, ptr %4, align 8, !tbaa !38
  store i32 %1, ptr %5, align 4, !tbaa !7
  store ptr %2, ptr %6, align 8, !tbaa !62
  call void @llvm.lifetime.start.p0(i64 8, ptr %7) #15
  %8 = load ptr, ptr %6, align 8, !tbaa !62
  store ptr %8, ptr %7, align 8, !tbaa !14
  %9 = load i32, ptr %5, align 4, !tbaa !7
  %10 = and i32 %9, 8
  %11 = icmp ne i32 %10, 0
  br i1 %11, label %12, label %28

12:                                               ; preds = %3
  %13 = load ptr, ptr %7, align 8, !tbaa !14
  %14 = getelementptr inbounds nuw %struct.dt_lut_t, ptr %13, i32 0, i32 3
  %15 = load ptr, ptr %14, align 8, !tbaa !41
  call void @gtk_widget_set_sensitive(ptr noundef %15, i32 noundef 0)
  %16 = load ptr, ptr %7, align 8, !tbaa !14
  %17 = getelementptr inbounds nuw %struct.dt_lut_t, ptr %16, i32 0, i32 4
  %18 = load ptr, ptr %17, align 8, !tbaa !42
  call void @gtk_widget_set_sensitive(ptr noundef %18, i32 noundef 0)
  %19 = load ptr, ptr %7, align 8, !tbaa !14
  %20 = getelementptr inbounds nuw %struct.dt_lut_t, ptr %19, i32 0, i32 7
  %21 = load ptr, ptr %20, align 8, !tbaa !43
  call void @gtk_widget_set_sensitive(ptr noundef %21, i32 noundef 0)
  %22 = load ptr, ptr %7, align 8, !tbaa !14
  %23 = getelementptr inbounds nuw %struct.dt_lut_t, ptr %22, i32 0, i32 8
  %24 = load ptr, ptr %23, align 8, !tbaa !44
  call void @gtk_widget_set_sensitive(ptr noundef %24, i32 noundef 0)
  %25 = load ptr, ptr %7, align 8, !tbaa !14
  %26 = getelementptr inbounds nuw %struct.dt_lut_t, ptr %25, i32 0, i32 9
  %27 = load ptr, ptr %26, align 8, !tbaa !45
  call void @gtk_widget_set_sensitive(ptr noundef %27, i32 noundef 0)
  br label %28

28:                                               ; preds = %12, %3
  call void @llvm.lifetime.end.p0(i64 8, ptr %7) #15
  ret void
}