; Function Attrs: nounwind uwtable
define internal void @cht_state_callback(ptr readnone captures(none) %0, i32 noundef %1, ptr noundef readonly captures(none) %2) #0 {
  %4 = and i32 %1, 8
  %.not = icmp eq i32 %4, 0
  br i1 %.not, label %16, label %5

5:                                                ; preds = %3
  %6 = getelementptr inbounds nuw i8, ptr %2, i64 24
  %7 = load ptr, ptr %6, align 8, !tbaa !46
  tail call void @gtk_widget_set_sensitive(ptr noundef %7, i32 noundef 0) #24
  %8 = getelementptr inbounds nuw i8, ptr %2, i64 32
  %9 = load ptr, ptr %8, align 8, !tbaa !47
  tail call void @gtk_widget_set_sensitive(ptr noundef %9, i32 noundef 0) #24
  %10 = getelementptr inbounds nuw i8, ptr %2, i64 56
  %11 = load ptr, ptr %10, align 8, !tbaa !53
  tail call void @gtk_widget_set_sensitive(ptr noundef %11, i32 noundef 0) #24
  %12 = getelementptr inbounds nuw i8, ptr %2, i64 64
  %13 = load ptr, ptr %12, align 8, !tbaa !54
  tail call void @gtk_widget_set_sensitive(ptr noundef %13, i32 noundef 0) #24
  %14 = getelementptr inbounds nuw i8, ptr %2, i64 72
  %15 = load ptr, ptr %14, align 8, !tbaa !55
  tail call void @gtk_widget_set_sensitive(ptr noundef %15, i32 noundef 0) #24
  br label %16

16:                                               ; preds = %5, %3
  ret void
}